; Function Attrs: nounwind sspstrong uwtable
define internal i64 @get_guest_features(ptr noundef readonly captures(none) %0) #0 {
  %2 = getelementptr inbounds nuw i8, ptr %0, i64 32
  %3 = load ptr, ptr %2, align 8
  %4 = getelementptr inbounds nuw i8, ptr %0, i64 40
  %5 = getelementptr inbounds nuw i8, ptr %0, i64 88
  %6 = load i32, ptr %5, align 8
  %7 = zext i32 %6 to i64
  %8 = add nuw nsw i64 %7, 8
  %9 = load i64, ptr %4, align 8
  %10 = getelementptr inbounds nuw i8, ptr %0, i64 48
  %11 = load i8, ptr %10, align 8
  tail call void @qpci_io_writel(ptr noundef %3, i64 %9, i8 %11, i64 noundef %8, i32 noundef 0) #3
  %12 = load ptr, ptr %2, align 8
  %13 = load i32, ptr %5, align 8
  %14 = zext i32 %13 to i64
  %15 = add nuw nsw i64 %14, 12
  %16 = load i64, ptr %4, align 8
  %17 = load i8, ptr %10, align 8
  %18 = tail call i32 @qpci_io_readl(ptr noundef %12, i64 %16, i8 %17, i64 noundef %15) #3
  %19 = zext i32 %18 to i64
  %20 = load ptr, ptr %2, align 8
  %21 = load i32, ptr %5, align 8
  %22 = zext i32 %21 to i64
  %23 = add nuw nsw i64 %22, 8
  %24 = load i64, ptr %4, align 8
  %25 = load i8, ptr %10, align 8
  tail call void @qpci_io_writel(ptr noundef %20, i64 %24, i8 %25, i64 noundef %23, i32 noundef 1) #3
  %26 = load ptr, ptr %2, align 8
  %27 = load i32, ptr %5, align 8
  %28 = zext i32 %27 to i64
  %29 = add nuw nsw i64 %28, 12
  %30 = load i64, ptr %4, align 8
  %31 = load i8, ptr %10, align 8
  %32 = tail call i32 @qpci_io_readl(ptr noundef %26, i64 %30, i8 %31, i64 noundef %29) #3
  %33 = zext i32 %32 to i64
  %34 = shl nuw i64 %33, 32
  %35 = or disjoint i64 %34, %19
  ret i64 %35
}